target datalayout = "e-m:e-p270:32:32-p271:32:32-p272:64:64-i64:64-i128:128-f80:128-n8:16:32:64-S128"
target triple = "x86_64-pc-linux-gnu"

%struct.PROV_CHACHA20_POLY1305_CTX = type { %struct.prov_cipher_ctx_st, %struct.PROV_CHACHA20_CTX, %struct.poly1305_context, [3 x i32], [16 x i8], [16 x i8], %struct.anon.1, i8, i64, i64, i64 }
%struct.prov_cipher_ctx_st = type { [16 x i8], [16 x i8], [16 x i8], ptr, %union.anon, i32, i64, i64, i64, i64, i32, i8, i32, ptr, i32, i64, i32, i64, i32, ptr, ptr, ptr }
%union.anon = type { ptr }
%struct.PROV_CHACHA20_CTX = type { %struct.prov_cipher_ctx_st, %union.anon.0, [4 x i32], [64 x i8], i32 }
%union.anon.0 = type { double, [24 x i8] }
%struct.poly1305_context = type { [24 x double], [4 x i32], [16 x i8], i64, %struct.anon }
%struct.anon = type { ptr, ptr }
%struct.anon.1 = type { i64, i64 }
%struct.ossl_param_st = type { ptr, i32, ptr, i64, i64 }

@.str = private unnamed_addr constant [72 x i8] c"../openssl/providers/implementations/ciphers/cipher_chacha20_poly1305.c\00", align 1
@.str.1 = private unnamed_addr constant [6 x i8] c"ivlen\00", align 1
@__func__.chacha20_poly1305_get_ctx_params = private unnamed_addr constant [33 x i8] c"chacha20_poly1305_get_ctx_params\00", align 1
@.str.2 = private unnamed_addr constant [7 x i8] c"keylen\00", align 1
@.str.3 = private unnamed_addr constant [7 x i8] c"taglen\00", align 1
@.str.4 = private unnamed_addr constant [10 x i8] c"tlsaadpad\00", align 1
@.str.5 = private unnamed_addr constant [4 x i8] c"tag\00", align 1

; Function Attrs: nounwind uwtable
define internal i32 @chacha20_poly1305_get_ctx_params(ptr noundef %0, ptr noundef %1) #0 {
  %3 = alloca i32, align 4
  %4 = alloca ptr, align 8
  %5 = alloca ptr, align 8
  %6 = alloca ptr, align 8
  %7 = alloca ptr, align 8
  %8 = alloca i32, align 4
  store ptr %0, ptr %4, align 8, !tbaa !3
  store ptr %1, ptr %5, align 8, !tbaa !24
  call void @llvm.lifetime.start.p0(i64 8, ptr %6) #5
  %9 = load ptr, ptr %4, align 8, !tbaa !3
  store ptr %9, ptr %6, align 8, !tbaa !3
  call void @llvm.lifetime.start.p0(i64 8, ptr %7) #5
  %10 = load ptr, ptr %5, align 8, !tbaa !24
  %11 = call ptr @OSSL_PARAM_locate(ptr noundef %10, ptr noundef @.str.1)
  store ptr %11, ptr %7, align 8, !tbaa !24
  %12 = load ptr, ptr %7, align 8, !tbaa !24
  %13 = icmp ne ptr %12, null
  br i1 %13, label %14, label %20

14:                                               ; preds = %2
  %15 = load ptr, ptr %7, align 8, !tbaa !24
  %16 = call i32 @OSSL_PARAM_set_size_t(ptr noundef %15, i64 noundef 12)
  %17 = icmp ne i32 %16, 0
  br i1 %17, label %19, label %18

18:                                               ; preds = %14
  call void @ERR_new()
  call void @ERR_set_debug(ptr noundef @.str, i32 noundef 107, ptr noundef @__func__.chacha20_poly1305_get_ctx_params)
  call void (i32, i32, ptr, ...) @ERR_set_error(i32 noundef 57, i32 noundef 104, ptr noundef null)
  store i32 0, ptr %3, align 4
  store i32 1, ptr %8, align 4
  br label %99

19:                                               ; preds = %14
  br label %20

20:                                               ; preds = %19, %2
  %21 = load ptr, ptr %5, align 8, !tbaa !24
  %22 = call ptr @OSSL_PARAM_locate(ptr noundef %21, ptr noundef @.str.2)
  store ptr %22, ptr %7, align 8, !tbaa !24
  %23 = load ptr, ptr %7, align 8, !tbaa !24
  %24 = icmp ne ptr %23, null
  br i1 %24, label %25, label %30

25:                                               ; preds = %20
  %26 = load ptr, ptr %7, align 8, !tbaa !24
  %27 = call i32 @OSSL_PARAM_set_size_t(ptr noundef %26, i64 noundef 32)
  %28 = icmp ne i32 %27, 0
  br i1 %28, label %30, label %29

29:                                               ; preds = %25
  call void @ERR_new()
  call void @ERR_set_debug(ptr noundef @.str, i32 noundef 113, ptr noundef @__func__.chacha20_poly1305_get_ctx_params)
  call void (i32, i32, ptr, ...) @ERR_set_error(i32 noundef 57, i32 noundef 104, ptr noundef null)
  store i32 0, ptr %3, align 4
  store i32 1, ptr %8, align 4
  br label %99

30:                                               ; preds = %25, %20
  %31 = load ptr, ptr %5, align 8, !tbaa !24
  %32 = call ptr @OSSL_PARAM_locate(ptr noundef %31, ptr noundef @.str.3)
  store ptr %32, ptr %7, align 8, !tbaa !24
  %33 = load ptr, ptr %7, align 8, !tbaa !24
  %34 = icmp ne ptr %33, null
  br i1 %34, label %35, label %43

35:                                               ; preds = %30
  %36 = load ptr, ptr %7, align 8, !tbaa !24
  %37 = load ptr, ptr %6, align 8, !tbaa !3
  %38 = getelementptr inbounds nuw %struct.PROV_CHACHA20_POLY1305_CTX, ptr %37, i32 0, i32 8
  %39 = load i64, ptr %38, align 8, !tbaa !38
  %40 = call i32 @OSSL_PARAM_set_size_t(ptr noundef %36, i64 noundef %39)
  %41 = icmp ne i32 %40, 0
  br i1 %41, label %43, label %42

42:                                               ; preds = %35
  call void @ERR_new()
  call void @ERR_set_debug(ptr noundef @.str, i32 noundef 118, ptr noundef @__func__.chacha20_poly1305_get_ctx_params)
  call void (i32, i32, ptr, ...) @ERR_set_error(i32 noundef 57, i32 noundef 104, ptr noundef null)
  store i32 0, ptr %3, align 4
  store i32 1, ptr %8, align 4
  br label %99

43:                                               ; preds = %35, %30
  %44 = load ptr, ptr %5, align 8, !tbaa !24
  %45 = call ptr @OSSL_PARAM_locate(ptr noundef %44, ptr noundef @.str.4)
  store ptr %45, ptr %7, align 8, !tbaa !24
  %46 = load ptr, ptr %7, align 8, !tbaa !24
  %47 = icmp ne ptr %46, null
  br i1 %47, label %48, label %56

48:                                               ; preds = %43
  %49 = load ptr, ptr %7, align 8, !tbaa !24
  %50 = load ptr, ptr %6, align 8, !tbaa !3
  %51 = getelementptr inbounds nuw %struct.PROV_CHACHA20_POLY1305_CTX, ptr %50, i32 0, i32 10
  %52 = load i64, ptr %51, align 8, !tbaa !39
  %53 = call i32 @OSSL_PARAM_set_size_t(ptr noundef %49, i64 noundef %52)
  %54 = icmp ne i32 %53, 0
  br i1 %54, label %56, label %55

55:                                               ; preds = %48
  call void @ERR_new()
  call void @ERR_set_debug(ptr noundef @.str, i32 noundef 123, ptr noundef @__func__.chacha20_poly1305_get_ctx_params)
  call void (i32, i32, ptr, ...) @ERR_set_error(i32 noundef 57, i32 noundef 104, ptr noundef null)
  store i32 0, ptr %3, align 4
  store i32 1, ptr %8, align 4
  br label %99

56:                                               ; preds = %48, %43
  %57 = load ptr, ptr %5, align 8, !tbaa !24
  %58 = call ptr @OSSL_PARAM_locate(ptr noundef %57, ptr noundef @.str.5)
  store ptr %58, ptr %7, align 8, !tbaa !24
  %59 = load ptr, ptr %7, align 8, !tbaa !24
  %60 = icmp ne ptr %59, null
  br i1 %60, label %61, label %98

61:                                               ; preds = %56
  %62 = load ptr, ptr %7, align 8, !tbaa !24
  %63 = getelementptr inbounds nuw %struct.ossl_param_st, ptr %62, i32 0, i32 1
  %64 = load i32, ptr %63, align 8, !tbaa !40
  %65 = icmp ne i32 %64, 5
  br i1 %65, label %66, label %67

66:                                               ; preds = %61
  call void @ERR_new()
  call void @ERR_set_debug(ptr noundef @.str, i32 noundef 130, ptr noundef @__func__.chacha20_poly1305_get_ctx_params)
  call void (i32, i32, ptr, ...) @ERR_set_error(i32 noundef 57, i32 noundef 104, ptr noundef null)
  store i32 0, ptr %3, align 4
  store i32 1, ptr %8, align 4
  br label %99

67:                                               ; preds = %61
  %68 = load ptr, ptr %6, align 8, !tbaa !3
  %69 = getelementptr inbounds nuw %struct.PROV_CHACHA20_POLY1305_CTX, ptr %68, i32 0, i32 0
  %70 = getelementptr inbounds nuw %struct.prov_cipher_ctx_st, ptr %69, i32 0, i32 11
  %71 = load i8, ptr %70, align 4
  %72 = lshr i8 %71, 1
  %73 = and i8 %72, 1
  %74 = zext i8 %73 to i32
  %75 = icmp ne i32 %74, 0
  br i1 %75, label %77, label %76

76:                                               ; preds = %67
  call void @ERR_new()
  call void @ERR_set_debug(ptr noundef @.str, i32 noundef 134, ptr noundef @__func__.chacha20_poly1305_get_ctx_params)
  call void (i32, i32, ptr, ...) @ERR_set_error(i32 noundef 57, i32 noundef 119, ptr noundef null)
  store i32 0, ptr %3, align 4
  store i32 1, ptr %8, align 4
  br label %99

77:                                               ; preds = %67
  %78 = load ptr, ptr %7, align 8, !tbaa !24
  %79 = getelementptr inbounds nuw %struct.ossl_param_st, ptr %78, i32 0, i32 3
  %80 = load i64, ptr %79, align 8, !tbaa !42
  %81 = icmp eq i64 %80, 0
  br i1 %81, label %87, label %82

82:                                               ; preds = %77
  %83 = load ptr, ptr %7, align 8, !tbaa !24
  %84 = getelementptr inbounds nuw %struct.ossl_param_st, ptr %83, i32 0, i32 3
  %85 = load i64, ptr %84, align 8, !tbaa !42
  %86 = icmp ugt i64 %85, 16
  br i1 %86, label %87, label %88

87:                                               ; preds = %82, %77
  call void @ERR_new()
  call void @ERR_set_debug(ptr noundef @.str, i32 noundef 138, ptr noundef @__func__.chacha20_poly1305_get_ctx_params)
  call void (i32, i32, ptr, ...) @ERR_set_error(i32 noundef 57, i32 noundef 118, ptr noundef null)
  store i32 0, ptr %3, align 4
  store i32 1, ptr %8, align 4
  br label %99

88:                                               ; preds = %82
  %89 = load ptr, ptr %7, align 8, !tbaa !24
  %90 = getelementptr inbounds nuw %struct.ossl_param_st, ptr %89, i32 0, i32 2
  %91 = load ptr, ptr %90, align 8, !tbaa !43
  %92 = load ptr, ptr %6, align 8, !tbaa !3
  %93 = getelementptr inbounds nuw %struct.PROV_CHACHA20_POLY1305_CTX, ptr %92, i32 0, i32 4
  %94 = getelementptr inbounds [16 x i8], ptr %93, i64 0, i64 0
  %95 = load ptr, ptr %7, align 8, !tbaa !24
  %96 = getelementptr inbounds nuw %struct.ossl_param_st, ptr %95, i32 0, i32 3
  %97 = load i64, ptr %96, align 8, !tbaa !42
  call void @llvm.memcpy.p0.p0.i64(ptr align 1 %91, ptr align 4 %94, i64 %97, i1 false)
  br label %98

98:                                               ; preds = %88, %56
  store i32 1, ptr %3, align 4
  store i32 1, ptr %8, align 4
  br label %99

99:                                               ; preds = %98, %87, %76, %66, %55, %42, %29, %18
  call void @llvm.lifetime.end.p0(i64 8, ptr %7) #5
  call void @llvm.lifetime.end.p0(i64 8, ptr %6) #5
  %100 = load i32, ptr %3, align 4
  ret i32 %100
}