; Function Attrs: nounwind uwtable
define internal range(i32 0, 2) i32 @chacha20_poly1305_get_ctx_params(ptr noundef readonly captures(none) %0, ptr noundef %1) #0 {
  %3 = tail call ptr @OSSL_PARAM_locate(ptr noundef %1, ptr noundef nonnull @.str.1) #5
  %.not = icmp eq ptr %3, null
  br i1 %.not, label %7, label %4

4:                                                ; preds = %2
  %5 = tail call i32 @OSSL_PARAM_set_size_t(ptr noundef nonnull %3, i64 noundef 12) #5
  %.not30 = icmp eq i32 %5, 0
  br i1 %.not30, label %6, label %7

6:                                                ; preds = %4
  tail call void @ERR_new() #5
  tail call void @ERR_set_debug(ptr noundef nonnull @.str, i32 noundef 107, ptr noundef nonnull @__func__.chacha20_poly1305_get_ctx_params) #5
  tail call void (i32, i32, ptr, ...) @ERR_set_error(i32 noundef 57, i32 noundef 104, ptr noundef null) #5
  br label %46

7:                                                ; preds = %4, %2
  %8 = tail call ptr @OSSL_PARAM_locate(ptr noundef %1, ptr noundef nonnull @.str.2) #5
  %.not31 = icmp eq ptr %8, null
  br i1 %.not31, label %12, label %9

9:                                                ; preds = %7
  %10 = tail call i32 @OSSL_PARAM_set_size_t(ptr noundef nonnull %8, i64 noundef 32) #5
  %.not32 = icmp eq i32 %10, 0
  br i1 %.not32, label %11, label %12

11:                                               ; preds = %9
  tail call void @ERR_new() #5
  tail call void @ERR_set_debug(ptr noundef nonnull @.str, i32 noundef 113, ptr noundef nonnull @__func__.chacha20_poly1305_get_ctx_params) #5
  tail call void (i32, i32, ptr, ...) @ERR_set_error(i32 noundef 57, i32 noundef 104, ptr noundef null) #5
  br label %46

12:                                               ; preds = %9, %7
  %13 = tail call ptr @OSSL_PARAM_locate(ptr noundef %1, ptr noundef nonnull @.str.3) #5
  %.not33 = icmp eq ptr %13, null
  br i1 %.not33, label %19, label %14

14:                                               ; preds = %12
  %15 = getelementptr inbounds nuw i8, ptr %0, i64 824
  %16 = load i64, ptr %15, align 8, !tbaa !27
  %17 = tail call i32 @OSSL_PARAM_set_size_t(ptr noundef nonnull %13, i64 noundef %16) #5
  %.not34 = icmp eq i32 %17, 0
  br i1 %.not34, label %18, label %19

18:                                               ; preds = %14
  tail call void @ERR_new() #5
  tail call void @ERR_set_debug(ptr noundef nonnull @.str, i32 noundef 118, ptr noundef nonnull @__func__.chacha20_poly1305_get_ctx_params) #5
  tail call void (i32, i32, ptr, ...) @ERR_set_error(i32 noundef 57, i32 noundef 104, ptr noundef null) #5
  br label %46

19:                                               ; preds = %14, %12
  %20 = tail call ptr @OSSL_PARAM_locate(ptr noundef %1, ptr noundef nonnull @.str.4) #5
  %.not35 = icmp eq ptr %20, null
  br i1 %.not35, label %26, label %21

21:                                               ; preds = %19
  %22 = getelementptr inbounds nuw i8, ptr %0, i64 840
  %23 = load i64, ptr %22, align 8, !tbaa !28
  %24 = tail call i32 @OSSL_PARAM_set_size_t(ptr noundef nonnull %20, i64 noundef %23) #5
  %.not36 = icmp eq i32 %24, 0
  br i1 %.not36, label %25, label %26

25:                                               ; preds = %21
  tail call void @ERR_new() #5
  tail call void @ERR_set_debug(ptr noundef nonnull @.str, i32 noundef 123, ptr noundef nonnull @__func__.chacha20_poly1305_get_ctx_params) #5
  tail call void (i32, i32, ptr, ...) @ERR_set_error(i32 noundef 57, i32 noundef 104, ptr noundef null) #5
  br label %46

26:                                               ; preds = %21, %19
  %27 = tail call ptr @OSSL_PARAM_locate(ptr noundef %1, ptr noundef nonnull @.str.5) #5
  %.not37 = icmp eq ptr %27, null
  br i1 %.not37, label %46, label %28

28:                                               ; preds = %26
  %29 = getelementptr inbounds nuw i8, ptr %27, i64 8
  %30 = load i32, ptr %29, align 8, !tbaa !29
  %.not38 = icmp eq i32 %30, 5
  br i1 %.not38, label %32, label %31

31:                                               ; preds = %28
  tail call void @ERR_new() #5
  tail call void @ERR_set_debug(ptr noundef nonnull @.str, i32 noundef 130, ptr noundef nonnull @__func__.chacha20_poly1305_get_ctx_params) #5
  tail call void (i32, i32, ptr, ...) @ERR_set_error(i32 noundef 57, i32 noundef 104, ptr noundef null) #5
  br label %46

32:                                               ; preds = %28
  %33 = getelementptr inbounds nuw i8, ptr %0, i64 108
  %34 = load i8, ptr %33, align 4
  %35 = and i8 %34, 2
  %.not39 = icmp eq i8 %35, 0
  br i1 %.not39, label %36, label %37

36:                                               ; preds = %32
  tail call void @ERR_new() #5
  tail call void @ERR_set_debug(ptr noundef nonnull @.str, i32 noundef 134, ptr noundef nonnull @__func__.chacha20_poly1305_get_ctx_params) #5
  tail call void (i32, i32, ptr, ...) @ERR_set_error(i32 noundef 57, i32 noundef 119, ptr noundef null) #5
  br label %46

37:                                               ; preds = %32
  %38 = getelementptr inbounds nuw i8, ptr %27, i64 24
  %39 = load i64, ptr %38, align 8, !tbaa !31
  %40 = add i64 %39, -17
  %or.cond = icmp ult i64 %40, -16
  br i1 %or.cond, label %41, label %42

41:                                               ; preds = %37
  tail call void @ERR_new() #5
  tail call void @ERR_set_debug(ptr noundef nonnull @.str, i32 noundef 138, ptr noundef nonnull @__func__.chacha20_poly1305_get_ctx_params) #5
  tail call void (i32, i32, ptr, ...) @ERR_set_error(i32 noundef 57, i32 noundef 118, ptr noundef null) #5
  br label %46

42:                                               ; preds = %37
  %43 = getelementptr inbounds nuw i8, ptr %27, i64 16
  %44 = load ptr, ptr %43, align 8, !tbaa !32
  %45 = getelementptr inbounds nuw i8, ptr %0, i64 764
  tail call void @llvm.memcpy.p0.p0.i64(ptr align 1 %44, ptr nonnull align 4 %45, i64 %39, i1 false)
  br label %46

46:                                               ; preds = %26, %42, %41, %36, %31, %25, %18, %11, %6
  %.0 = phi i32 [ 0, %31 ], [ 0, %41 ], [ 0, %36 ], [ 0, %25 ], [ 0, %18 ], [ 0, %11 ], [ 0, %6 ], [ 1, %42 ], [ 1, %26 ]
  ret i32 %.0
}